; Function Attrs: mustprogress uwtable
define noundef zeroext i1 @_ZNK8facebook5velox7RowType6equalsERKNS0_4TypeE(ptr noundef nonnull align 8 dereferenceable(120) %this, ptr noundef nonnull align 8 dereferenceable(17) %other) local_unnamed_addr #0 align 2 {
entry:
  %vtable = load ptr, ptr %this, align 8
  %vfn = getelementptr inbounds i8, ptr %vtable, i64 88
  %0 = load ptr, ptr %vfn, align 8
  %call = tail call noundef zeroext i1 %0(ptr noundef nonnull align 8 dereferenceable(120) %this, ptr noundef nonnull align 8 dereferenceable(17) %other)
  br i1 %call, label %if.end, label %return

if.end:                                           ; preds = %entry
  %1 = tail call ptr @__dynamic_cast(ptr nonnull %other, ptr nonnull @_ZTIN8facebook5velox4TypeE, ptr nonnull @_ZTIN8facebook5velox7RowTypeE, i64 0) #37
  %2 = icmp eq ptr %1, null
  br i1 %2, label %dynamic_cast.bad_cast.i.i, label %for.cond.preheader

for.cond.preheader:                               ; preds = %if.end
  %vtable321 = load ptr, ptr %this, align 8
  %vfn422 = getelementptr inbounds i8, ptr %vtable321, i64 16
  %3 = load ptr, ptr %vfn422, align 8
  %call523 = tail call noundef i32 %3(ptr noundef nonnull align 8 dereferenceable(120) %this)
  %cmp25.not = icmp eq i32 %call523, 0
  br i1 %cmp25.not, label %return, label %for.body.lr.ph

for.body.lr.ph:                                   ; preds = %for.cond.preheader
  %names_.i = getelementptr inbounds i8, ptr %this, i64 24
  %_M_finish.i.i.i.i = getelementptr inbounds i8, ptr %this, i64 32
  %names_.i5 = getelementptr inbounds i8, ptr %1, i64 24
  %_M_finish.i.i.i.i7 = getelementptr inbounds i8, ptr %1, i64 32
  br label %for.body

dynamic_cast.bad_cast.i.i:                        ; preds = %if.end
  tail call void @__cxa_bad_cast() #39
  unreachable

for.body:                                         ; preds = %for.body.lr.ph, %for.inc
  %i.026 = phi i64 [ 0, %for.body.lr.ph ], [ %inc, %for.inc ]
  %4 = load ptr, ptr %_M_finish.i.i.i.i, align 8
  %5 = load ptr, ptr %names_.i, align 8
  %sub.ptr.lhs.cast.i.i.i.i = ptrtoint ptr %4 to i64
  %sub.ptr.rhs.cast.i.i.i.i = ptrtoint ptr %5 to i64
  %sub.ptr.sub.i.i.i.i = sub i64 %sub.ptr.lhs.cast.i.i.i.i, %sub.ptr.rhs.cast.i.i.i.i
  %sub.ptr.div.i.i.i.i = ashr exact i64 %sub.ptr.sub.i.i.i.i, 5
  %cmp.not.i.i.i = icmp ugt i64 %sub.ptr.div.i.i.i.i, %i.026
  br i1 %cmp.not.i.i.i, label %_ZNK8facebook5velox7RowType6nameOfB5cxx11Ej.exit, label %if.then.i.i.i

if.then.i.i.i:                                    ; preds = %for.body
  tail call void (ptr, ...) @_ZSt24__throw_out_of_range_fmtPKcz(ptr noundef nonnull @.str.75, i64 noundef %i.026, i64 noundef %sub.ptr.div.i.i.i.i) #39
  unreachable

_ZNK8facebook5velox7RowType6nameOfB5cxx11Ej.exit: ; preds = %for.body
  %add.ptr.i.i.i = getelementptr inbounds %"class.std::__cxx11::basic_string", ptr %5, i64 %i.026
  %6 = load ptr, ptr %_M_finish.i.i.i.i7, align 8
  %7 = load ptr, ptr %names_.i5, align 8
  %sub.ptr.lhs.cast.i.i.i.i8 = ptrtoint ptr %6 to i64
  %sub.ptr.rhs.cast.i.i.i.i9 = ptrtoint ptr %7 to i64
  %sub.ptr.sub.i.i.i.i10 = sub i64 %sub.ptr.lhs.cast.i.i.i.i8, %sub.ptr.rhs.cast.i.i.i.i9
  %sub.ptr.div.i.i.i.i11 = ashr exact i64 %sub.ptr.sub.i.i.i.i10, 5
  %cmp.not.i.i.i12 = icmp ugt i64 %sub.ptr.div.i.i.i.i11, %i.026
  br i1 %cmp.not.i.i.i12, label %_ZNK8facebook5velox7RowType6nameOfB5cxx11Ej.exit15, label %if.then.i.i.i13

if.then.i.i.i13:                                  ; preds = %_ZNK8facebook5velox7RowType6nameOfB5cxx11Ej.exit
  tail call void (ptr, ...) @_ZSt24__throw_out_of_range_fmtPKcz(ptr noundef nonnull @.str.75, i64 noundef %i.026, i64 noundef %sub.ptr.div.i.i.i.i11) #39
  unreachable

_ZNK8facebook5velox7RowType6nameOfB5cxx11Ej.exit15: ; preds = %_ZNK8facebook5velox7RowType6nameOfB5cxx11Ej.exit
  %add.ptr.i.i.i14 = getelementptr inbounds %"class.std::__cxx11::basic_string", ptr %7, i64 %i.026
  %call.i.i = tail call noundef i64 @_ZNKSt7__cxx1112basic_stringIcSt11char_traitsIcESaIcEE4sizeEv(ptr noundef nonnull align 8 dereferenceable(32) %add.ptr.i.i.i) #37
  %call1.i.i = tail call noundef i64 @_ZNKSt7__cxx1112basic_stringIcSt11char_traitsIcESaIcEE4sizeEv(ptr noundef nonnull align 8 dereferenceable(32) %add.ptr.i.i.i14) #37
  %cmp.i.i = icmp eq i64 %call.i.i, %call1.i.i
  br i1 %cmp.i.i, label %land.rhs.i.i, label %return

land.rhs.i.i:                                     ; preds = %_ZNK8facebook5velox7RowType6nameOfB5cxx11Ej.exit15
  %call2.i.i = tail call noundef ptr @_ZNKSt7__cxx1112basic_stringIcSt11char_traitsIcESaIcEE4dataEv(ptr noundef nonnull align 8 dereferenceable(32) %add.ptr.i.i.i) #37
  %call3.i.i = tail call noundef ptr @_ZNKSt7__cxx1112basic_stringIcSt11char_traitsIcESaIcEE4dataEv(ptr noundef nonnull align 8 dereferenceable(32) %add.ptr.i.i.i14) #37
  %call4.i.i = tail call noundef i64 @_ZNKSt7__cxx1112basic_stringIcSt11char_traitsIcESaIcEE4sizeEv(ptr noundef nonnull align 8 dereferenceable(32) %add.ptr.i.i.i) #37
  %cmp.i.i.i = icmp eq i64 %call4.i.i, 0
  br i1 %cmp.i.i.i, label %for.inc, label %_ZStneIcSt11char_traitsIcESaIcEEbRKNSt7__cxx1112basic_stringIT_T0_T1_EESA_.exit

_ZStneIcSt11char_traitsIcESaIcEEbRKNSt7__cxx1112basic_stringIT_T0_T1_EESA_.exit: ; preds = %land.rhs.i.i
  %bcmp.i.i = tail call i32 @bcmp(ptr %call2.i.i, ptr %call3.i.i, i64 %call4.i.i)
  %.not = icmp eq i32 %bcmp.i.i, 0
  br i1 %.not, label %for.inc, label %return

for.inc:                                          ; preds = %land.rhs.i.i, %_ZStneIcSt11char_traitsIcESaIcEEbRKNSt7__cxx1112basic_stringIT_T0_T1_EESA_.exit
  %inc = add nuw nsw i64 %i.026, 1
  %vtable3 = load ptr, ptr %this, align 8
  %vfn4 = getelementptr inbounds i8, ptr %vtable3, i64 16
  %8 = load ptr, ptr %vfn4, align 8
  %call5 = tail call noundef i32 %8(ptr noundef nonnull align 8 dereferenceable(120) %this)
  %conv = zext i32 %call5 to i64
  %cmp = icmp ult i64 %inc, %conv
  br i1 %cmp, label %for.body, label %return, !llvm.loop !75

return:                                           ; preds = %_ZStneIcSt11char_traitsIcESaIcEEbRKNSt7__cxx1112basic_stringIT_T0_T1_EESA_.exit, %for.inc, %_ZNK8facebook5velox7RowType6nameOfB5cxx11Ej.exit15, %for.cond.preheader, %entry
  %retval.0 = phi i1 [ false, %entry ], [ true, %for.cond.preheader ], [ false, %_ZStneIcSt11char_traitsIcESaIcEEbRKNSt7__cxx1112basic_stringIT_T0_T1_EESA_.exit ], [ true, %for.inc ], [ false, %_ZNK8facebook5velox7RowType6nameOfB5cxx11Ej.exit15 ]
  ret i1 %retval.0
}